target datalayout = "e-m:e-p270:32:32-p271:32:32-p272:64:64-i64:64-i128:128-f80:128-n8:16:32:64-S128"
target triple = "x86_64-pc-linux-gnu"

%struct.ArHosekSkyModelState = type { [11 x [9 x double]], [11 x double], double, double, [11 x double], [11 x double], double, double }

@solarDatasets = dso_local global [11 x ptr] [ptr @solarDataset320, ptr @solarDataset360, ptr @solarDataset400, ptr @solarDataset440, ptr @solarDataset480, ptr @solarDataset520, ptr @solarDataset560, ptr @solarDataset600, ptr @solarDataset640, ptr @solarDataset680, ptr @solarDataset720], align 16

; Function Attrs: nounwind uwtable
define dso_local double @arhosekskymodel_sr_internal(ptr noundef %0, i32 noundef %1, i32 noundef %2, double noundef %3) #0 {
  %5 = alloca ptr, align 8
  %6 = alloca i32, align 4
  %7 = alloca i32, align 4
  %8 = alloca double, align 8
  %9 = alloca i32, align 4
  %10 = alloca double, align 8
  %11 = alloca ptr, align 8
  %12 = alloca double, align 8
  %13 = alloca double, align 8
  %14 = alloca double, align 8
  %15 = alloca i32, align 4
  store ptr %0, ptr %5, align 8, !tbaa !18
  store i32 %1, ptr %6, align 4, !tbaa !11
  store i32 %2, ptr %7, align 4, !tbaa !11
  store double %3, ptr %8, align 8, !tbaa !9
  call void @llvm.lifetime.start.p0(i64 4, ptr %9) #5
  %16 = load double, ptr %8, align 8, !tbaa !9
  %17 = fmul double 2.000000e+00, %16
  %18 = fdiv double %17, 0x400921FB54442D18
  %19 = call double @pow(double noundef %18, double noundef 0x3FD5555555555555) #5, !tbaa !11
  %20 = fmul double %19, 4.500000e+01
  %21 = fptosi double %20 to i32
  store i32 %21, ptr %9, align 4, !tbaa !11
  %22 = load i32, ptr %9, align 4, !tbaa !11
  %23 = icmp sgt i32 %22, 44
  br i1 %23, label %24, label %25

24:                                               ; preds = %4
  store i32 44, ptr %9, align 4, !tbaa !11
  br label %25

25:                                               ; preds = %24, %4
  call void @llvm.lifetime.start.p0(i64 8, ptr %10) #5
  %26 = load i32, ptr %9, align 4, !tbaa !11
  %27 = sitofp i32 %26 to double
  %28 = fdiv double %27, 4.500000e+01
  %29 = call double @pow(double noundef %28, double noundef 3.000000e+00) #5, !tbaa !11
  %30 = fmul double %29, 0x3FF921FB54442D18
  store double %30, ptr %10, align 8, !tbaa !9
  call void @llvm.lifetime.start.p0(i64 8, ptr %11) #5
  %31 = load i32, ptr %7, align 4, !tbaa !11
  %32 = sext i32 %31 to i64
  %33 = getelementptr inbounds [11 x ptr], ptr @solarDatasets, i64 0, i64 %32
  %34 = load ptr, ptr %33, align 8, !tbaa !4
  %35 = load i32, ptr %6, align 4, !tbaa !11
  %36 = mul nsw i32 180, %35
  %37 = load i32, ptr %9, align 4, !tbaa !11
  %38 = add nsw i32 %37, 1
  %39 = mul nsw i32 4, %38
  %40 = add nsw i32 %36, %39
  %41 = sub nsw i32 %40, 1
  %42 = sext i32 %41 to i64
  %43 = getelementptr inbounds double, ptr %34, i64 %42
  store ptr %43, ptr %11, align 8, !tbaa !4
  call void @llvm.lifetime.start.p0(i64 8, ptr %12) #5
  store double 0.000000e+00, ptr %12, align 8, !tbaa !9
  call void @llvm.lifetime.start.p0(i64 8, ptr %13) #5
  %44 = load double, ptr %8, align 8, !tbaa !9
  %45 = load double, ptr %10, align 8, !tbaa !9
  %46 = fsub double %44, %45
  store double %46, ptr %13, align 8, !tbaa !9
  call void @llvm.lifetime.start.p0(i64 8, ptr %14) #5
  store double 1.000000e+00, ptr %14, align 8, !tbaa !9
  call void @llvm.lifetime.start.p0(i64 4, ptr %15) #5
  store i32 0, ptr %15, align 4, !tbaa !11
  br label %47

47:                                               ; preds = %60, %25
  %48 = load i32, ptr %15, align 4, !tbaa !11
  %49 = icmp slt i32 %48, 4
  br i1 %49, label %50, label %63

50:                                               ; preds = %47
  %51 = load double, ptr %14, align 8, !tbaa !9
  %52 = load ptr, ptr %11, align 8, !tbaa !4
  %53 = getelementptr inbounds double, ptr %52, i32 -1
  store ptr %53, ptr %11, align 8, !tbaa !4
  %54 = load double, ptr %52, align 8, !tbaa !9
  %55 = load double, ptr %12, align 8, !tbaa !9
  %56 = call double @llvm.fmuladd.f64(double %51, double %54, double %55)
  store double %56, ptr %12, align 8, !tbaa !9
  %57 = load double, ptr %13, align 8, !tbaa !9
  %58 = load double, ptr %14, align 8, !tbaa !9
  %59 = fmul double %58, %57
  store double %59, ptr %14, align 8, !tbaa !9
  br label %60

60:                                               ; preds = %50
  %61 = load i32, ptr %15, align 4, !tbaa !11
  %62 = add nsw i32 %61, 1
  store i32 %62, ptr %15, align 4, !tbaa !11
  br label %47, !llvm.loop !31

63:                                               ; preds = %47
  %64 = load double, ptr %12, align 8, !tbaa !9
  %65 = load ptr, ptr %5, align 8, !tbaa !18
  %66 = getelementptr inbounds nuw %struct.ArHosekSkyModelState, ptr %65, i32 0, i32 5
  %67 = load i32, ptr %7, align 4, !tbaa !11
  %68 = sext i32 %67 to i64
  %69 = getelementptr inbounds [11 x double], ptr %66, i64 0, i64 %68
  %70 = load double, ptr %69, align 8, !tbaa !9
  %71 = fmul double %64, %70
  call void @llvm.lifetime.end.p0(i64 4, ptr %15) #5
  call void @llvm.lifetime.end.p0(i64 8, ptr %14) #5
  call void @llvm.lifetime.end.p0(i64 8, ptr %13) #5
  call void @llvm.lifetime.end.p0(i64 8, ptr %12) #5
  call void @llvm.lifetime.end.p0(i64 8, ptr %11) #5
  call void @llvm.lifetime.end.p0(i64 8, ptr %10) #5
  call void @llvm.lifetime.end.p0(i64 4, ptr %9) #5
  ret double %71
}