; Function Attrs: nofree nounwind memory(readwrite, inaccessiblemem: write) uwtable
define dso_local double @arhosekskymodel_sr_internal(ptr noundef readonly captures(none) %0, i32 noundef %1, i32 noundef %2, double noundef %3) local_unnamed_addr #10 {
  %5 = fmul double %3, 2.000000e+00
  %6 = fdiv double %5, 0x400921FB54442D18
  %7 = tail call double @pow(double noundef %6, double noundef 0x3FD5555555555555) #12, !tbaa !4
  %8 = fmul double %7, 4.500000e+01
  %9 = fptosi double %8 to i32
  %spec.store.select = tail call i32 @llvm.smin.i32(i32 %9, i32 44)
  %10 = sitofp i32 %spec.store.select to double
  %11 = fdiv double %10, 4.500000e+01
  %12 = tail call double @pow(double noundef %11, double noundef 3.000000e+00) #12, !tbaa !4
  %13 = fmul double %12, 0x3FF921FB54442D18
  %14 = sext i32 %2 to i64
  %15 = getelementptr inbounds [11 x ptr], ptr @solarDatasets, i64 0, i64 %14
  %16 = load ptr, ptr %15, align 8, !tbaa !20
  %17 = mul nsw i32 %1, 180
  %18 = shl i32 %spec.store.select, 2
  %19 = add i32 %17, 4
  %20 = add i32 %19, %18
  %21 = sext i32 %20 to i64
  %22 = getelementptr double, ptr %16, i64 %21
  %23 = fsub double %3, %13
  br label %24

24:                                               ; preds = %4, %24
  %.023 = phi i32 [ 0, %4 ], [ %28, %24 ]
  %.01722 = phi double [ 1.000000e+00, %4 ], [ %27, %24 ]
  %.pn21 = phi ptr [ %22, %4 ], [ %.018, %24 ]
  %.01920 = phi double [ 0.000000e+00, %4 ], [ %26, %24 ]
  %.018 = getelementptr i8, ptr %.pn21, i64 -8
  %25 = load double, ptr %.018, align 8, !tbaa !8
  %26 = tail call double @llvm.fmuladd.f64(double %.01722, double %25, double %.01920)
  %27 = fmul double %23, %.01722
  %28 = add nuw nsw i32 %.023, 1
  %exitcond.not = icmp eq i32 %28, 4
  br i1 %exitcond.not, label %29, label %24, !llvm.loop !29

29:                                               ; preds = %24
  %30 = getelementptr inbounds nuw i8, ptr %0, i64 984
  %31 = getelementptr inbounds [11 x double], ptr %30, i64 0, i64 %14
  %32 = load double, ptr %31, align 8, !tbaa !8
  %33 = fmul double %26, %32
  ret double %33
}